; Function Attrs: nounwind sspstrong uwtable
define internal noundef i64 @ripper_parser_set_yydebug(i64 noundef %0, i64 noundef returned %1) #0 {
  %3 = tail call ptr @rb_check_typeddata(i64 noundef %0, ptr noundef nonnull @parser_data_type) #5
  %4 = load ptr, ptr %3, align 8, !tbaa !18
  %5 = and i64 %1, -5
  %6 = icmp ne i64 %5, 0
  %7 = zext i1 %6 to i32
  %8 = tail call i32 @rb_ruby_parser_set_yydebug(ptr noundef %4, i32 noundef %7) #5
  ret i64 %1
}